; Function Attrs: mustprogress uwtable
define hidden void @_ZN4lean2ir7mk_pappERKNS_4nameERKNS_6bufferINS_10object_refELm16EEE(ptr dead_on_unwind noalias writable writeonly sret(%"class.lean::object_ref") align 8 captures(none) %0, ptr noundef nonnull readonly align 8 captures(none) dereferenceable(8) %1, ptr noundef nonnull readonly align 8 captures(none) dereferenceable(152) %2) local_unnamed_addr #0 {
  %4 = load ptr, ptr %1, align 8, !tbaa !3
  %5 = ptrtoint ptr %4 to i64
  %6 = and i64 %5, 1
  %.not.i.i = icmp eq i64 %6, 0
  br i1 %.not.i.i, label %7, label %_ZNK4lean10object_ref10to_obj_argEv.exit

7:                                                ; preds = %3
  %.val.i.i.i = load i32, ptr %4, align 4, !tbaa !8
  %8 = icmp sgt i32 %.val.i.i.i, 0
  br i1 %8, label %9, label %11, !prof !11

9:                                                ; preds = %7
  %10 = add nuw nsw i32 %.val.i.i.i, 1
  store i32 %10, ptr %4, align 4, !tbaa !8
  br label %_ZNK4lean10object_ref10to_obj_argEv.exit

11:                                               ; preds = %7
  %.not.i.i.i = icmp eq i32 %.val.i.i.i, 0
  br i1 %.not.i.i.i, label %_ZNK4lean10object_ref10to_obj_argEv.exit, label %12

12:                                               ; preds = %11
  tail call void @lean_inc_ref_cold(ptr noundef nonnull %4)
  %.pre.i = load ptr, ptr %1, align 8, !tbaa !3
  br label %_ZNK4lean10object_ref10to_obj_argEv.exit

_ZNK4lean10object_ref10to_obj_argEv.exit:         ; preds = %3, %9, %11, %12
  %13 = phi ptr [ %4, %3 ], [ %4, %9 ], [ %4, %11 ], [ %.pre.i, %12 ]
  %14 = getelementptr inbounds nuw i8, ptr %2, i64 8
  %15 = load i64, ptr %14, align 8, !tbaa !13
  %16 = shl i64 %15, 3
  %17 = add i64 %16, 24
  %18 = tail call ptr @lean_alloc_object(i64 noundef %17)
  store i32 1, ptr %18, align 4, !tbaa !8
  %19 = getelementptr inbounds nuw i8, ptr %18, i64 4
  %20 = load i32, ptr %19, align 4
  %21 = and i32 %20, 65535
  %22 = or disjoint i32 %21, -167772160
  store i32 %22, ptr %19, align 4
  %23 = getelementptr inbounds nuw i8, ptr %18, i64 8
  store i64 %15, ptr %23, align 8, !tbaa !17
  %24 = getelementptr inbounds nuw i8, ptr %18, i64 16
  store i64 %15, ptr %24, align 8, !tbaa !17
  %25 = load ptr, ptr %2, align 8, !tbaa !18
  %26 = load i64, ptr %14, align 8, !tbaa !13
  %27 = getelementptr inbounds nuw %"class.lean::object_ref", ptr %25, i64 %26
  %.not15.i = icmp eq i64 %26, 0
  br i1 %.not15.i, label %_ZN4lean8to_arrayINS_6bufferINS_10object_refELm16EEEEEP11lean_objectRKT_.exit, label %.lr.ph.i

.lr.ph.i:                                         ; preds = %_ZNK4lean10object_ref10to_obj_argEv.exit
  %28 = getelementptr inbounds nuw i8, ptr %18, i64 24
  br label %29

29:                                               ; preds = %_ZN4lean3incEP11lean_object.exit.i, %.lr.ph.i
  %.017.i = phi i64 [ 0, %.lr.ph.i ], [ %41, %_ZN4lean3incEP11lean_object.exit.i ]
  %.01416.i = phi ptr [ %25, %.lr.ph.i ], [ %42, %_ZN4lean3incEP11lean_object.exit.i ]
  %30 = load ptr, ptr %.01416.i, align 8, !tbaa !3
  %31 = ptrtoint ptr %30 to i64
  %32 = and i64 %31, 1
  %.not.i.i2 = icmp eq i64 %32, 0
  br i1 %.not.i.i2, label %33, label %_ZN4lean3incEP11lean_object.exit.i

33:                                               ; preds = %29
  %.val.i.i.i3 = load i32, ptr %30, align 4, !tbaa !8
  %34 = icmp sgt i32 %.val.i.i.i3, 0
  br i1 %34, label %35, label %37, !prof !11

35:                                               ; preds = %33
  %36 = add nuw nsw i32 %.val.i.i.i3, 1
  store i32 %36, ptr %30, align 4, !tbaa !8
  br label %_ZN4lean3incEP11lean_object.exit.i

37:                                               ; preds = %33
  %.not.i.i.i4 = icmp eq i32 %.val.i.i.i3, 0
  br i1 %.not.i.i.i4, label %_ZN4lean3incEP11lean_object.exit.i, label %38

38:                                               ; preds = %37
  tail call void @lean_inc_ref_cold(ptr noundef nonnull %30)
  %.pre.i5 = load ptr, ptr %.01416.i, align 8, !tbaa !3
  br label %_ZN4lean3incEP11lean_object.exit.i

_ZN4lean3incEP11lean_object.exit.i:               ; preds = %38, %37, %35, %29
  %39 = phi ptr [ %30, %29 ], [ %30, %35 ], [ %30, %37 ], [ %.pre.i5, %38 ]
  %40 = getelementptr inbounds nuw [0 x ptr], ptr %28, i64 0, i64 %.017.i
  store ptr %39, ptr %40, align 8, !tbaa !12
  %41 = add nuw nsw i64 %.017.i, 1
  %42 = getelementptr inbounds nuw i8, ptr %.01416.i, i64 8
  %.not.i = icmp eq ptr %42, %27
  br i1 %.not.i, label %_ZN4lean8to_arrayINS_6bufferINS_10object_refELm16EEEEEP11lean_objectRKT_.exit, label %29

_ZN4lean8to_arrayINS_6bufferINS_10object_refELm16EEEEEP11lean_objectRKT_.exit: ; preds = %_ZN4lean3incEP11lean_object.exit.i, %_ZNK4lean10object_ref10to_obj_argEv.exit
  %43 = tail call ptr @lean_ir_mk_papp_expr(ptr noundef %13, ptr noundef nonnull %18)
  store ptr %43, ptr %0, align 8, !tbaa !3
  ret void
}